target datalayout = "e-m:e-p270:32:32-p271:32:32-p272:64:64-i64:64-i128:128-f80:128-n8:16:32:64-S128"
target triple = "x86_64-pc-linux-gnu"

%"class.cv::Mat" = type { i32, i32, i32, i32, ptr, ptr, ptr, ptr, ptr, ptr, %"struct.cv::MatSize", %"struct.cv::MatStep" }
%"struct.cv::MatSize" = type { ptr }
%"struct.cv::MatStep" = type { ptr, [2 x i64] }

; Function Attrs: inlinehint mustprogress nounwind uwtable
define linkonce_odr hidden noundef ptr @_ZNK2cv3Mat3ptrIfEEPKT_i(ptr noundef nonnull align 8 dereferenceable(96) %0, i32 noundef %1) #6 comdat align 2 {
  %3 = alloca ptr, align 8
  %4 = alloca i32, align 4
  store ptr %0, ptr %3, align 8, !tbaa !3
  store i32 %1, ptr %4, align 4, !tbaa !8
  %5 = load ptr, ptr %3, align 8
  %6 = getelementptr inbounds nuw %"class.cv::Mat", ptr %5, i32 0, i32 4
  %7 = load ptr, ptr %6, align 8, !tbaa !33
  %8 = getelementptr inbounds nuw %"class.cv::Mat", ptr %5, i32 0, i32 11
  %9 = getelementptr inbounds nuw %"struct.cv::MatStep", ptr %8, i32 0, i32 0
  %10 = load ptr, ptr %9, align 8, !tbaa !40
  %11 = getelementptr inbounds i64, ptr %10, i64 0
  %12 = load i64, ptr %11, align 8, !tbaa !41
  %13 = load i32, ptr %4, align 4, !tbaa !8
  %14 = sext i32 %13 to i64
  %15 = mul i64 %12, %14
  %16 = getelementptr inbounds nuw i8, ptr %7, i64 %15
  ret ptr %16
}

; Function Attrs: mustprogress uwtable
define hidden noundef zeroext i1 @_ZN2cv27check_maximum_neighbourhoodERKNS_3MatEifiib(ptr noundef nonnull align 8 dereferenceable(96) %0, i32 noundef %1, float noundef %2, i32 noundef %3, i32 noundef %4, i1 noundef zeroext %5) #4 {
  %7 = alloca i1, align 1
  %8 = alloca ptr, align 8
  %9 = alloca i32, align 4
  %10 = alloca float, align 4
  %11 = alloca i32, align 4
  %12 = alloca i32, align 4
  %13 = alloca i8, align 1
  %14 = alloca i8, align 1
  %15 = alloca i32, align 4
  %16 = alloca i32, align 4
  %17 = alloca i32, align 4
  store ptr %0, ptr %8, align 8, !tbaa !3
  store i32 %1, ptr %9, align 4, !tbaa !8
  store float %2, ptr %10, align 4, !tbaa !10
  store i32 %3, ptr %11, align 4, !tbaa !8
  store i32 %4, ptr %12, align 4, !tbaa !8
  %18 = zext i1 %5 to i8
  store i8 %18, ptr %13, align 1, !tbaa !117
  call void @llvm.lifetime.start.p0(i64 1, ptr %14) #3
  store i8 1, ptr %14, align 1, !tbaa !117
  call void @llvm.lifetime.start.p0(i64 4, ptr %15) #3
  %19 = load i32, ptr %11, align 4, !tbaa !8
  %20 = load i32, ptr %9, align 4, !tbaa !8
  %21 = sub nsw i32 %19, %20
  store i32 %21, ptr %15, align 4, !tbaa !8
  br label %22

22:                                               ; preds = %108, %6
  %23 = load i32, ptr %15, align 4, !tbaa !8
  %24 = load i32, ptr %11, align 4, !tbaa !8
  %25 = load i32, ptr %9, align 4, !tbaa !8
  %26 = add nsw i32 %24, %25
  %27 = icmp sle i32 %23, %26
  br i1 %27, label %29, label %28

28:                                               ; preds = %22
  store i32 2, ptr %16, align 4
  br label %111

29:                                               ; preds = %22
  call void @llvm.lifetime.start.p0(i64 4, ptr %17) #3
  %30 = load i32, ptr %12, align 4, !tbaa !8
  %31 = load i32, ptr %9, align 4, !tbaa !8
  %32 = sub nsw i32 %30, %31
  store i32 %32, ptr %17, align 4, !tbaa !8
  br label %33

33:                                               ; preds = %102, %29
  %34 = load i32, ptr %17, align 4, !tbaa !8
  %35 = load i32, ptr %12, align 4, !tbaa !8
  %36 = load i32, ptr %9, align 4, !tbaa !8
  %37 = add nsw i32 %35, %36
  %38 = icmp sle i32 %34, %37
  br i1 %38, label %40, label %39

39:                                               ; preds = %33
  store i32 5, ptr %16, align 4
  br label %105

40:                                               ; preds = %33
  %41 = load i32, ptr %15, align 4, !tbaa !8
  %42 = icmp sge i32 %41, 0
  br i1 %42, label %43, label %101

43:                                               ; preds = %40
  %44 = load i32, ptr %15, align 4, !tbaa !8
  %45 = load ptr, ptr %8, align 8, !tbaa !3
  %46 = getelementptr inbounds nuw %"class.cv::Mat", ptr %45, i32 0, i32 2
  %47 = load i32, ptr %46, align 8, !tbaa !70
  %48 = icmp slt i32 %44, %47
  br i1 %48, label %49, label %101

49:                                               ; preds = %43
  %50 = load i32, ptr %17, align 4, !tbaa !8
  %51 = icmp sge i32 %50, 0
  br i1 %51, label %52, label %101

52:                                               ; preds = %49
  %53 = load i32, ptr %17, align 4, !tbaa !8
  %54 = load ptr, ptr %8, align 8, !tbaa !3
  %55 = getelementptr inbounds nuw %"class.cv::Mat", ptr %54, i32 0, i32 3
  %56 = load i32, ptr %55, align 4, !tbaa !71
  %57 = icmp slt i32 %53, %56
  br i1 %57, label %58, label %101

58:                                               ; preds = %52
  %59 = load i8, ptr %13, align 1, !tbaa !117, !range !119, !noundef !120
  %60 = trunc i8 %59 to i1
  %61 = zext i1 %60 to i32
  %62 = icmp eq i32 %61, 1
  br i1 %62, label %63, label %86

63:                                               ; preds = %58
  %64 = load i32, ptr %15, align 4, !tbaa !8
  %65 = load i32, ptr %11, align 4, !tbaa !8
  %66 = icmp ne i32 %64, %65
  br i1 %66, label %71, label %67

67:                                               ; preds = %63
  %68 = load i32, ptr %17, align 4, !tbaa !8
  %69 = load i32, ptr %12, align 4, !tbaa !8
  %70 = icmp ne i32 %68, %69
  br i1 %70, label %71, label %85

71:                                               ; preds = %67, %63
  %72 = load ptr, ptr %8, align 8, !tbaa !3
  %73 = load i32, ptr %15, align 4, !tbaa !8
  %74 = call noundef ptr @_ZNK2cv3Mat3ptrIfEEPKT_i(ptr noundef nonnull align 8 dereferenceable(96) %72, i32 noundef %73)
  %75 = load i32, ptr %17, align 4, !tbaa !8
  %76 = sext i32 %75 to i64
  %77 = getelementptr inbounds float, ptr %74, i64 %76
  %78 = load float, ptr %77, align 4, !tbaa !10
  %79 = load float, ptr %10, align 4, !tbaa !10
  %80 = fcmp ogt float %78, %79
  br i1 %80, label %81, label %84

81:                                               ; preds = %71
  store i8 0, ptr %14, align 1, !tbaa !117
  %82 = load i8, ptr %14, align 1, !tbaa !117, !range !119, !noundef !120
  %83 = trunc i8 %82 to i1
  store i1 %83, ptr %7, align 1
  store i32 1, ptr %16, align 4
  br label %105

84:                                               ; preds = %71
  br label %85

85:                                               ; preds = %84, %67
  br label %100

86:                                               ; preds = %58
  %87 = load ptr, ptr %8, align 8, !tbaa !3
  %88 = load i32, ptr %15, align 4, !tbaa !8
  %89 = call noundef ptr @_ZNK2cv3Mat3ptrIfEEPKT_i(ptr noundef nonnull align 8 dereferenceable(96) %87, i32 noundef %88)
  %90 = load i32, ptr %17, align 4, !tbaa !8
  %91 = sext i32 %90 to i64
  %92 = getelementptr inbounds float, ptr %89, i64 %91
  %93 = load float, ptr %92, align 4, !tbaa !10
  %94 = load float, ptr %10, align 4, !tbaa !10
  %95 = fcmp ogt float %93, %94
  br i1 %95, label %96, label %99

96:                                               ; preds = %86
  store i8 0, ptr %14, align 1, !tbaa !117
  %97 = load i8, ptr %14, align 1, !tbaa !117, !range !119, !noundef !120
  %98 = trunc i8 %97 to i1
  store i1 %98, ptr %7, align 1
  store i32 1, ptr %16, align 4
  br label %105

99:                                               ; preds = %86
  br label %100

100:                                              ; preds = %99, %85
  br label %101

101:                                              ; preds = %100, %52, %49, %43, %40
  br label %102

102:                                              ; preds = %101
  %103 = load i32, ptr %17, align 4, !tbaa !8
  %104 = add nsw i32 %103, 1
  store i32 %104, ptr %17, align 4, !tbaa !8
  br label %33, !llvm.loop !121

105:                                              ; preds = %96, %81, %39
  call void @llvm.lifetime.end.p0(i64 4, ptr %17) #3
  %106 = load i32, ptr %16, align 4
  switch i32 %106, label %111 [
    i32 5, label %107
  ]

107:                                              ; preds = %105
  br label %108

108:                                              ; preds = %107
  %109 = load i32, ptr %15, align 4, !tbaa !8
  %110 = add nsw i32 %109, 1
  store i32 %110, ptr %15, align 4, !tbaa !8
  br label %22, !llvm.loop !122

111:                                              ; preds = %105, %28
  call void @llvm.lifetime.end.p0(i64 4, ptr %15) #3
  %112 = load i32, ptr %16, align 4
  switch i32 %112, label %116 [
    i32 2, label %113
  ]

113:                                              ; preds = %111
  %114 = load i8, ptr %14, align 1, !tbaa !117, !range !119, !noundef !120
  %115 = trunc i8 %114 to i1
  store i1 %115, ptr %7, align 1
  store i32 1, ptr %16, align 4
  br label %116

116:                                              ; preds = %113, %111
  call void @llvm.lifetime.end.p0(i64 1, ptr %14) #3
  %117 = load i1, ptr %7, align 1
  ret i1 %117
}