; Function Attrs: mustprogress nofree norecurse nosync nounwind willreturn memory(read, inaccessiblemem: none) uwtable
define hidden noundef zeroext i1 @_ZN2cv27check_maximum_neighbourhoodERKNS_3MatEifiib(ptr noundef nonnull readonly align 8 captures(none) dereferenceable(96) %0, i32 noundef %1, float noundef %2, i32 noundef %3, i32 noundef %4, i1 noundef zeroext %5) local_unnamed_addr #8 {
  %7 = sub i32 %3, %1
  %8 = add i32 %3, %1
  %.not63 = icmp sgt i32 %7, %8
  br i1 %.not63, label %.thread, label %.lr.ph67

.lr.ph67:                                         ; preds = %6
  %9 = sub nsw i32 %4, %1
  %10 = add i32 %4, %1
  %.not4556 = icmp sgt i32 %9, %10
  %11 = getelementptr inbounds nuw i8, ptr %0, i64 8
  %12 = load i32, ptr %11, align 8
  %13 = getelementptr inbounds nuw i8, ptr %0, i64 12
  %14 = load i32, ptr %13, align 4
  %15 = getelementptr inbounds nuw i8, ptr %0, i64 16
  %16 = load ptr, ptr %15, align 8
  %17 = getelementptr inbounds nuw i8, ptr %0, i64 72
  %18 = load ptr, ptr %17, align 8
  br i1 %.not4556, label %.thread, label %.lr.ph67.split

.lr.ph67.split:                                   ; preds = %.lr.ph67
  br i1 %5, label %.lr.ph.us, label %.lr.ph

.lr.ph.us:                                        ; preds = %.lr.ph67.split, %._crit_edge.us
  %.03964.us70 = phi i32 [ %21, %._crit_edge.us ], [ %7, %.lr.ph67.split ]
  %19 = icmp sgt i32 %.03964.us70, -1
  %.not46.us = icmp eq i32 %.03964.us70, %3
  %20 = zext nneg i32 %.03964.us70 to i64
  br i1 %19, label %.lr.ph.split.us.us, label %._crit_edge.us

._crit_edge.us:                                   ; preds = %33, %45, %.lr.ph.split.us.us, %.lr.ph.us
  %21 = add i32 %.03964.us70, 1
  %.not.us75 = icmp sgt i32 %21, %8
  br i1 %.not.us75, label %.thread, label %.lr.ph.us, !llvm.loop !128

.lr.ph.split.us.us:                               ; preds = %.lr.ph.us
  %22 = icmp slt i32 %.03964.us70, %12
  %.fr.us = freeze i1 %22
  br i1 %.fr.us, label %.lr.ph.split.us.split.us76, label %._crit_edge.us

.lr.ph.split.us.split.us76:                       ; preds = %.lr.ph.split.us.us
  br i1 %.not46.us, label %.lr.ph.split.us.split.split.us.us.split, label %.lr.ph.split.us.split.split.us.us.split.us

.lr.ph.split.us.split.split.us.us.split.us:       ; preds = %.lr.ph.split.us.split.us76, %33
  %.057.us.us58.us.us = phi i32 [ %34, %33 ], [ %9, %.lr.ph.split.us.split.us76 ]
  %23 = icmp sgt i32 %.057.us.us58.us.us, -1
  %24 = icmp slt i32 %.057.us.us58.us.us, %14
  %or.cond50.us.us.us.us = select i1 %23, i1 %24, i1 false
  br i1 %or.cond50.us.us.us.us, label %25, label %33

25:                                               ; preds = %.lr.ph.split.us.split.split.us.us.split.us
  %26 = load i64, ptr %18, align 8, !tbaa !34
  %27 = mul i64 %26, %20
  %28 = getelementptr inbounds nuw i8, ptr %16, i64 %27
  %29 = zext nneg i32 %.057.us.us58.us.us to i64
  %30 = getelementptr inbounds nuw float, ptr %28, i64 %29
  %31 = load float, ptr %30, align 4, !tbaa !36
  %32 = fcmp ogt float %31, %2
  br i1 %32, label %.thread, label %33

33:                                               ; preds = %25, %.lr.ph.split.us.split.split.us.us.split.us
  %34 = add i32 %.057.us.us58.us.us, 1
  %exitcond96.not = icmp eq i32 %.057.us.us58.us.us, %10
  br i1 %exitcond96.not, label %._crit_edge.us, label %.lr.ph.split.us.split.split.us.us.split.us, !llvm.loop !129

.lr.ph.split.us.split.split.us.us.split:          ; preds = %.lr.ph.split.us.split.us76, %45
  %.057.us.us58.us = phi i32 [ %46, %45 ], [ %9, %.lr.ph.split.us.split.us76 ]
  %35 = icmp slt i32 %.057.us.us58.us, 0
  %36 = icmp sge i32 %.057.us.us58.us, %14
  %or.cond50.us.us.us.not84 = select i1 %35, i1 true, i1 %36
  %.not47.us.us.us = icmp eq i32 %.057.us.us58.us, %4
  %or.cond = or i1 %or.cond50.us.us.us.not84, %.not47.us.us.us
  br i1 %or.cond, label %45, label %37

37:                                               ; preds = %.lr.ph.split.us.split.split.us.us.split
  %38 = load i64, ptr %18, align 8, !tbaa !34
  %39 = mul i64 %38, %20
  %40 = getelementptr inbounds nuw i8, ptr %16, i64 %39
  %41 = zext nneg i32 %.057.us.us58.us to i64
  %42 = getelementptr inbounds nuw float, ptr %40, i64 %41
  %43 = load float, ptr %42, align 4, !tbaa !36
  %44 = fcmp ogt float %43, %2
  br i1 %44, label %.thread, label %45

45:                                               ; preds = %37, %.lr.ph.split.us.split.split.us.us.split
  %46 = add i32 %.057.us.us58.us, 1
  %exitcond97.not = icmp eq i32 %.057.us.us58.us, %10
  br i1 %exitcond97.not, label %._crit_edge.us, label %.lr.ph.split.us.split.split.us.us.split, !llvm.loop !129

.lr.ph:                                           ; preds = %.lr.ph67.split, %._crit_edge
  %.03964 = phi i32 [ %62, %._crit_edge ], [ %7, %.lr.ph67.split ]
  %47 = icmp sgt i32 %.03964, -1
  %48 = zext nneg i32 %.03964 to i64
  br i1 %47, label %.lr.ph.split.us, label %._crit_edge

.lr.ph.split.us:                                  ; preds = %.lr.ph
  %49 = icmp slt i32 %.03964, %12
  %.fr = freeze i1 %49
  br i1 %.fr, label %.lr.ph.split.us.split, label %._crit_edge

.lr.ph.split.us.split:                            ; preds = %.lr.ph.split.us, %60
  %.057.us = phi i32 [ %61, %60 ], [ %9, %.lr.ph.split.us ]
  %50 = icmp sgt i32 %.057.us, -1
  %51 = icmp slt i32 %.057.us, %14
  %or.cond50.us = select i1 %50, i1 %51, i1 false
  br i1 %or.cond50.us, label %52, label %60

52:                                               ; preds = %.lr.ph.split.us.split
  %53 = load i64, ptr %18, align 8, !tbaa !34
  %54 = mul i64 %53, %48
  %55 = getelementptr inbounds nuw i8, ptr %16, i64 %54
  %56 = zext nneg i32 %.057.us to i64
  %57 = getelementptr inbounds nuw float, ptr %55, i64 %56
  %58 = load float, ptr %57, align 4, !tbaa !36
  %59 = fcmp ogt float %58, %2
  br i1 %59, label %.thread, label %60

60:                                               ; preds = %52, %.lr.ph.split.us.split
  %61 = add i32 %.057.us, 1
  %exitcond.not = icmp eq i32 %.057.us, %10
  br i1 %exitcond.not, label %._crit_edge, label %.lr.ph.split.us.split, !llvm.loop !129

._crit_edge:                                      ; preds = %60, %.lr.ph.split.us, %.lr.ph
  %62 = add i32 %.03964, 1
  %exitcond95.not = icmp eq i32 %.03964, %8
  br i1 %exitcond95.not, label %.thread, label %.lr.ph, !llvm.loop !128

.thread:                                          ; preds = %._crit_edge, %52, %._crit_edge.us, %25, %37, %.lr.ph67, %6
  %.not55 = phi i1 [ true, %6 ], [ true, %.lr.ph67 ], [ false, %37 ], [ false, %25 ], [ true, %._crit_edge.us ], [ false, %52 ], [ true, %._crit_edge ]
  ret i1 %.not55
}